target datalayout = "e-m:e-p270:32:32-p271:32:32-p272:64:64-i64:64-i128:128-f80:128-n8:16:32:64-S128"
target triple = "x86_64-pc-linux-gnu"

; Function Attrs: norecurse uwtable
define internal void @_ZN3gmxL16set_lincs_matrixEPNS_5LincsENS_8ArrayRefIKfEEf.omp_outlined.omp.reduction.reduction_func(ptr noundef %0, ptr noundef %1) #21 {
  %3 = alloca ptr, align 8
  %4 = alloca ptr, align 8
  store ptr %0, ptr %3, align 8, !tbaa !174
  store ptr %1, ptr %4, align 8, !tbaa !174
  %5 = load ptr, ptr %3, align 8
  %6 = load ptr, ptr %4, align 8
  %7 = getelementptr inbounds [3 x ptr], ptr %6, i64 0, i64 0
  %8 = load ptr, ptr %7, align 8
  %9 = getelementptr inbounds [3 x ptr], ptr %5, i64 0, i64 0
  %10 = load ptr, ptr %9, align 8
  %11 = getelementptr inbounds [3 x ptr], ptr %6, i64 0, i64 1
  %12 = load ptr, ptr %11, align 8
  %13 = getelementptr inbounds [3 x ptr], ptr %5, i64 0, i64 1
  %14 = load ptr, ptr %13, align 8
  %15 = getelementptr inbounds [3 x ptr], ptr %6, i64 0, i64 2
  %16 = load ptr, ptr %15, align 8
  %17 = getelementptr inbounds [3 x ptr], ptr %5, i64 0, i64 2
  %18 = load ptr, ptr %17, align 8
  %19 = load i32, ptr %10, align 4, !tbaa !32
  %20 = load i32, ptr %8, align 4, !tbaa !32
  %21 = add nsw i32 %19, %20
  store i32 %21, ptr %10, align 4, !tbaa !32
  %22 = load i32, ptr %14, align 4, !tbaa !32
  %23 = load i32, ptr %12, align 4, !tbaa !32
  %24 = add nsw i32 %22, %23
  store i32 %24, ptr %14, align 4, !tbaa !32
  %25 = load i32, ptr %18, align 4, !tbaa !32
  %26 = load i32, ptr %16, align 4, !tbaa !32
  %27 = add nsw i32 %25, %26
  store i32 %27, ptr %18, align 4, !tbaa !32
  ret void
}