; Function Attrs: mustprogress nofree norecurse nosync nounwind willreturn memory(readwrite, inaccessiblemem: none) uwtable
define internal void @_ZN3gmxL16set_lincs_matrixEPNS_5LincsENS_8ArrayRefIKfEEf.omp_outlined.omp.reduction.reduction_func(ptr noundef readonly captures(none) %0, ptr noundef readonly captures(none) %1) #25 {
  %3 = load ptr, ptr %1, align 8
  %4 = load ptr, ptr %0, align 8
  %5 = getelementptr inbounds nuw i8, ptr %1, i64 8
  %6 = load ptr, ptr %5, align 8
  %7 = getelementptr inbounds nuw i8, ptr %0, i64 8
  %8 = load ptr, ptr %7, align 8
  %9 = getelementptr inbounds nuw i8, ptr %1, i64 16
  %10 = load ptr, ptr %9, align 8
  %11 = getelementptr inbounds nuw i8, ptr %0, i64 16
  %12 = load ptr, ptr %11, align 8
  %13 = load i32, ptr %4, align 4, !tbaa !18
  %14 = load i32, ptr %3, align 4, !tbaa !18
  %15 = add nsw i32 %14, %13
  store i32 %15, ptr %4, align 4, !tbaa !18
  %16 = load i32, ptr %8, align 4, !tbaa !18
  %17 = load i32, ptr %6, align 4, !tbaa !18
  %18 = add nsw i32 %17, %16
  store i32 %18, ptr %8, align 4, !tbaa !18
  %19 = load i32, ptr %12, align 4, !tbaa !18
  %20 = load i32, ptr %10, align 4, !tbaa !18
  %21 = add nsw i32 %20, %19
  store i32 %21, ptr %12, align 4, !tbaa !18
  ret void
}